target datalayout = "e-m:e-p270:32:32-p271:32:32-p272:64:64-i64:64-i128:128-f80:128-n8:16:32:64-S128"
target triple = "x86_64-pc-linux-gnu"

%struct.GifFileType = type { i32, i32, i32, i32, i8, ptr, i32, %struct.GifImageDesc, ptr, i32, ptr, i32, ptr, ptr }
%struct.GifImageDesc = type { i32, i32, i32, i32, i8, ptr }
%struct.GifFilePrivateType = type { i32, i32, i32, i32, i32, i32, i32, i32, i32, i32, i32, i32, i64, i64, ptr, ptr, ptr, [256 x i8], [4095 x i8], [4096 x i8], [4096 x i32], ptr, i8 }

@DGifDecompressInput.CodeMasks = internal constant [13 x i16] [i16 0, i16 1, i16 3, i16 7, i16 15, i16 31, i16 63, i16 127, i16 255, i16 511, i16 1023, i16 2047, i16 4095], align 16

; Function Attrs: nounwind uwtable
define internal i32 @InternalRead(ptr noundef %0, ptr noundef %1, i32 noundef %2) #0 {
  %4 = alloca ptr, align 8
  %5 = alloca ptr, align 8
  %6 = alloca i32, align 4
  store ptr %0, ptr %4, align 8
  store ptr %1, ptr %5, align 8
  store i32 %2, ptr %6, align 4
  %7 = load ptr, ptr %4, align 8
  %8 = getelementptr inbounds %struct.GifFileType, ptr %7, i32 0, i32 13
  %9 = load ptr, ptr %8, align 8
  %10 = getelementptr inbounds %struct.GifFilePrivateType, ptr %9, i32 0, i32 15
  %11 = load ptr, ptr %10, align 8
  %12 = icmp ne ptr %11, null
  br i1 %12, label %13, label %24

13:                                               ; preds = %3
  %14 = load ptr, ptr %4, align 8
  %15 = getelementptr inbounds %struct.GifFileType, ptr %14, i32 0, i32 13
  %16 = load ptr, ptr %15, align 8
  %17 = getelementptr inbounds %struct.GifFilePrivateType, ptr %16, i32 0, i32 15
  %18 = load ptr, ptr %17, align 8
  %19 = load ptr, ptr %4, align 8
  %20 = load ptr, ptr %5, align 8
  %21 = load i32, ptr %6, align 4
  %22 = call i32 %18(ptr noundef %19, ptr noundef %20, i32 noundef %21)
  %23 = sext i32 %22 to i64
  br label %34

24:                                               ; preds = %3
  %25 = load ptr, ptr %5, align 8
  %26 = load i32, ptr %6, align 4
  %27 = sext i32 %26 to i64
  %28 = load ptr, ptr %4, align 8
  %29 = getelementptr inbounds %struct.GifFileType, ptr %28, i32 0, i32 13
  %30 = load ptr, ptr %29, align 8
  %31 = getelementptr inbounds %struct.GifFilePrivateType, ptr %30, i32 0, i32 14
  %32 = load ptr, ptr %31, align 8
  %33 = call i64 @fread(ptr noundef %25, i64 noundef 1, i64 noundef %27, ptr noundef %32)
  br label %34

34:                                               ; preds = %24, %13
  %35 = phi i64 [ %23, %13 ], [ %33, %24 ]
  %36 = trunc i64 %35 to i32
  ret i32 %36
}

; Function Attrs: nounwind uwtable
define internal i32 @DGifBufferedInput(ptr noundef %0, ptr noundef %1, ptr noundef %2) #0 {
  %4 = alloca i32, align 4
  %5 = alloca ptr, align 8
  %6 = alloca ptr, align 8
  %7 = alloca ptr, align 8
  store ptr %0, ptr %5, align 8
  store ptr %1, ptr %6, align 8
  store ptr %2, ptr %7, align 8
  %8 = load ptr, ptr %6, align 8
  %9 = getelementptr inbounds i8, ptr %8, i64 0
  %10 = load i8, ptr %9, align 1
  %11 = zext i8 %10 to i32
  %12 = icmp eq i32 %11, 0
  br i1 %12, label %13, label %58

13:                                               ; preds = %3
  %14 = load ptr, ptr %5, align 8
  %15 = load ptr, ptr %6, align 8
  %16 = call i32 @InternalRead(ptr noundef %14, ptr noundef %15, i32 noundef 1)
  %17 = icmp ne i32 %16, 1
  br i1 %17, label %18, label %21

18:                                               ; preds = %13
  %19 = load ptr, ptr %5, align 8
  %20 = getelementptr inbounds %struct.GifFileType, ptr %19, i32 0, i32 11
  store i32 102, ptr %20, align 8
  store i32 0, ptr %4, align 4
  br label %73

21:                                               ; preds = %13
  %22 = load ptr, ptr %6, align 8
  %23 = getelementptr inbounds i8, ptr %22, i64 0
  %24 = load i8, ptr %23, align 1
  %25 = zext i8 %24 to i32
  %26 = icmp eq i32 %25, 0
  br i1 %26, label %27, label %30

27:                                               ; preds = %21
  %28 = load ptr, ptr %5, align 8
  %29 = getelementptr inbounds %struct.GifFileType, ptr %28, i32 0, i32 11
  store i32 112, ptr %29, align 8
  store i32 0, ptr %4, align 4
  br label %73

30:                                               ; preds = %21
  %31 = load ptr, ptr %5, align 8
  %32 = load ptr, ptr %6, align 8
  %33 = getelementptr inbounds i8, ptr %32, i64 1
  %34 = load ptr, ptr %6, align 8
  %35 = getelementptr inbounds i8, ptr %34, i64 0
  %36 = load i8, ptr %35, align 1
  %37 = zext i8 %36 to i32
  %38 = call i32 @InternalRead(ptr noundef %31, ptr noundef %33, i32 noundef %37)
  %39 = load ptr, ptr %6, align 8
  %40 = getelementptr inbounds i8, ptr %39, i64 0
  %41 = load i8, ptr %40, align 1
  %42 = zext i8 %41 to i32
  %43 = icmp ne i32 %38, %42
  br i1 %43, label %44, label %47

44:                                               ; preds = %30
  %45 = load ptr, ptr %5, align 8
  %46 = getelementptr inbounds %struct.GifFileType, ptr %45, i32 0, i32 11
  store i32 102, ptr %46, align 8
  store i32 0, ptr %4, align 4
  br label %73

47:                                               ; preds = %30
  %48 = load ptr, ptr %6, align 8
  %49 = getelementptr inbounds i8, ptr %48, i64 1
  %50 = load i8, ptr %49, align 1
  %51 = load ptr, ptr %7, align 8
  store i8 %50, ptr %51, align 1
  %52 = load ptr, ptr %6, align 8
  %53 = getelementptr inbounds i8, ptr %52, i64 1
  store i8 2, ptr %53, align 1
  %54 = load ptr, ptr %6, align 8
  %55 = getelementptr inbounds i8, ptr %54, i64 0
  %56 = load i8, ptr %55, align 1
  %57 = add i8 %56, -1
  store i8 %57, ptr %55, align 1
  br label %72

58:                                               ; preds = %3
  %59 = load ptr, ptr %6, align 8
  %60 = load ptr, ptr %6, align 8
  %61 = getelementptr inbounds i8, ptr %60, i64 1
  %62 = load i8, ptr %61, align 1
  %63 = add i8 %62, 1
  store i8 %63, ptr %61, align 1
  %64 = zext i8 %62 to i64
  %65 = getelementptr inbounds i8, ptr %59, i64 %64
  %66 = load i8, ptr %65, align 1
  %67 = load ptr, ptr %7, align 8
  store i8 %66, ptr %67, align 1
  %68 = load ptr, ptr %6, align 8
  %69 = getelementptr inbounds i8, ptr %68, i64 0
  %70 = load i8, ptr %69, align 1
  %71 = add i8 %70, -1
  store i8 %71, ptr %69, align 1
  br label %72

72:                                               ; preds = %58, %47
  store i32 1, ptr %4, align 4
  br label %73

73:                                               ; preds = %72, %44, %27, %18
  %74 = load i32, ptr %4, align 4
  ret i32 %74
}

; Function Attrs: nounwind uwtable
define internal i32 @DGifDecompressInput(ptr noundef %0, ptr noundef %1) #0 {
  %3 = alloca i32, align 4
  %4 = alloca ptr, align 8
  %5 = alloca ptr, align 8
  %6 = alloca ptr, align 8
  %7 = alloca i8, align 1
  store ptr %0, ptr %4, align 8
  store ptr %1, ptr %5, align 8
  %8 = load ptr, ptr %4, align 8
  %9 = getelementptr inbounds %struct.GifFileType, ptr %8, i32 0, i32 13
  %10 = load ptr, ptr %9, align 8
  store ptr %10, ptr %6, align 8
  %11 = load ptr, ptr %6, align 8
  %12 = getelementptr inbounds %struct.GifFilePrivateType, ptr %11, i32 0, i32 6
  %13 = load i32, ptr %12, align 8
  %14 = icmp sgt i32 %13, 12
  br i1 %14, label %15, label %18

15:                                               ; preds = %2
  %16 = load ptr, ptr %4, align 8
  %17 = getelementptr inbounds %struct.GifFileType, ptr %16, i32 0, i32 11
  store i32 112, ptr %17, align 8
  store i32 0, ptr %3, align 4
  br label %108

18:                                               ; preds = %2
  br label %19

19:                                               ; preds = %35, %18
  %20 = load ptr, ptr %6, align 8
  %21 = getelementptr inbounds %struct.GifFilePrivateType, ptr %20, i32 0, i32 11
  %22 = load i32, ptr %21, align 4
  %23 = load ptr, ptr %6, align 8
  %24 = getelementptr inbounds %struct.GifFilePrivateType, ptr %23, i32 0, i32 6
  %25 = load i32, ptr %24, align 8
  %26 = icmp slt i32 %22, %25
  br i1 %26, label %27, label %51

27:                                               ; preds = %19
  %28 = load ptr, ptr %4, align 8
  %29 = load ptr, ptr %6, align 8
  %30 = getelementptr inbounds %struct.GifFilePrivateType, ptr %29, i32 0, i32 17
  %31 = getelementptr inbounds [256 x i8], ptr %30, i64 0, i64 0
  %32 = call i32 @DGifBufferedInput(ptr noundef %28, ptr noundef %31, ptr noundef %7)
  %33 = icmp eq i32 %32, 0
  br i1 %33, label %34, label %35

34:                                               ; preds = %27
  store i32 0, ptr %3, align 4
  br label %108

35:                                               ; preds = %27
  %36 = load i8, ptr %7, align 1
  %37 = zext i8 %36 to i64
  %38 = load ptr, ptr %6, align 8
  %39 = getelementptr inbounds %struct.GifFilePrivateType, ptr %38, i32 0, i32 11
  %40 = load i32, ptr %39, align 4
  %41 = zext i32 %40 to i64
  %42 = shl i64 %37, %41
  %43 = load ptr, ptr %6, align 8
  %44 = getelementptr inbounds %struct.GifFilePrivateType, ptr %43, i32 0, i32 12
  %45 = load i64, ptr %44, align 8
  %46 = or i64 %45, %42
  store i64 %46, ptr %44, align 8
  %47 = load ptr, ptr %6, align 8
  %48 = getelementptr inbounds %struct.GifFilePrivateType, ptr %47, i32 0, i32 11
  %49 = load i32, ptr %48, align 4
  %50 = add nsw i32 %49, 8
  store i32 %50, ptr %48, align 4
  br label %19, !llvm.loop !19

51:                                               ; preds = %19
  %52 = load ptr, ptr %6, align 8
  %53 = getelementptr inbounds %struct.GifFilePrivateType, ptr %52, i32 0, i32 12
  %54 = load i64, ptr %53, align 8
  %55 = load ptr, ptr %6, align 8
  %56 = getelementptr inbounds %struct.GifFilePrivateType, ptr %55, i32 0, i32 6
  %57 = load i32, ptr %56, align 8
  %58 = sext i32 %57 to i64
  %59 = getelementptr inbounds [13 x i16], ptr @DGifDecompressInput.CodeMasks, i64 0, i64 %58
  %60 = load i16, ptr %59, align 2
  %61 = zext i16 %60 to i64
  %62 = and i64 %54, %61
  %63 = trunc i64 %62 to i32
  %64 = load ptr, ptr %5, align 8
  store i32 %63, ptr %64, align 4
  %65 = load ptr, ptr %6, align 8
  %66 = getelementptr inbounds %struct.GifFilePrivateType, ptr %65, i32 0, i32 6
  %67 = load i32, ptr %66, align 8
  %68 = load ptr, ptr %6, align 8
  %69 = getelementptr inbounds %struct.GifFilePrivateType, ptr %68, i32 0, i32 12
  %70 = load i64, ptr %69, align 8
  %71 = zext i32 %67 to i64
  %72 = lshr i64 %70, %71
  store i64 %72, ptr %69, align 8
  %73 = load ptr, ptr %6, align 8
  %74 = getelementptr inbounds %struct.GifFilePrivateType, ptr %73, i32 0, i32 6
  %75 = load i32, ptr %74, align 8
  %76 = load ptr, ptr %6, align 8
  %77 = getelementptr inbounds %struct.GifFilePrivateType, ptr %76, i32 0, i32 11
  %78 = load i32, ptr %77, align 4
  %79 = sub nsw i32 %78, %75
  store i32 %79, ptr %77, align 4
  %80 = load ptr, ptr %6, align 8
  %81 = getelementptr inbounds %struct.GifFilePrivateType, ptr %80, i32 0, i32 5
  %82 = load i32, ptr %81, align 4
  %83 = icmp slt i32 %82, 4097
  br i1 %83, label %84, label %107

84:                                               ; preds = %51
  %85 = load ptr, ptr %6, align 8
  %86 = getelementptr inbounds %struct.GifFilePrivateType, ptr %85, i32 0, i32 5
  %87 = load i32, ptr %86, align 4
  %88 = add nsw i32 %87, 1
  store i32 %88, ptr %86, align 4
  %89 = load ptr, ptr %6, align 8
  %90 = getelementptr inbounds %struct.GifFilePrivateType, ptr %89, i32 0, i32 7
  %91 = load i32, ptr %90, align 4
  %92 = icmp sgt i32 %88, %91
  br i1 %92, label %93, label %107

93:                                               ; preds = %84
  %94 = load ptr, ptr %6, align 8
  %95 = getelementptr inbounds %struct.GifFilePrivateType, ptr %94, i32 0, i32 6
  %96 = load i32, ptr %95, align 8
  %97 = icmp slt i32 %96, 12
  br i1 %97, label %98, label %107

98:                                               ; preds = %93
  %99 = load ptr, ptr %6, align 8
  %100 = getelementptr inbounds %struct.GifFilePrivateType, ptr %99, i32 0, i32 7
  %101 = load i32, ptr %100, align 4
  %102 = shl i32 %101, 1
  store i32 %102, ptr %100, align 4
  %103 = load ptr, ptr %6, align 8
  %104 = getelementptr inbounds %struct.GifFilePrivateType, ptr %103, i32 0, i32 6
  %105 = load i32, ptr %104, align 8
  %106 = add nsw i32 %105, 1
  store i32 %106, ptr %104, align 8
  br label %107

107:                                              ; preds = %98, %93, %84, %51
  store i32 1, ptr %3, align 4
  br label %108

108:                                              ; preds = %107, %34, %15
  %109 = load i32, ptr %3, align 4
  ret i32 %109
}