; Function Attrs: nounwind uwtable
define internal fastcc range(i32 0, 2) i32 @DGifDecompressInput(ptr noundef %0, ptr nocapture noundef writeonly %1) unnamed_addr #0 {
  %3 = getelementptr inbounds i8, ptr %0, i64 112
  %4 = load ptr, ptr %3, align 8
  %5 = getelementptr inbounds i8, ptr %4, i64 24
  %6 = load i32, ptr %5, align 8
  %7 = icmp sgt i32 %6, 12
  br i1 %7, label %14, label %.preheader

.preheader:                                       ; preds = %2
  %8 = getelementptr inbounds i8, ptr %4, i64 44
  %9 = load i32, ptr %8, align 4
  %10 = icmp slt i32 %9, %6
  br i1 %10, label %.lr.ph, label %.preheader.._crit_edge_crit_edge

.preheader.._crit_edge_crit_edge:                 ; preds = %.preheader
  %.phi.trans.insert = getelementptr inbounds i8, ptr %4, i64 48
  %.pre41 = load i64, ptr %.phi.trans.insert, align 8
  br label %._crit_edge

.lr.ph:                                           ; preds = %.preheader
  %11 = getelementptr inbounds i8, ptr %4, i64 88
  %12 = getelementptr inbounds i8, ptr %4, i64 89
  %13 = getelementptr inbounds i8, ptr %4, i64 48
  %.pre = load i8, ptr %11, align 1
  br label %16

14:                                               ; preds = %2
  %15 = getelementptr inbounds i8, ptr %0, i64 96
  store i32 112, ptr %15, align 8
  br label %DGifBufferedInput.exit.thread

16:                                               ; preds = %.lr.ph, %66
  %17 = phi i32 [ %6, %.lr.ph ], [ %67, %66 ]
  %18 = phi i32 [ %9, %.lr.ph ], [ %74, %66 ]
  %19 = phi i8 [ %.pre, %.lr.ph ], [ %storemerge.i, %66 ]
  %20 = icmp eq i8 %19, 0
  br i1 %20, label %21, label %60

21:                                               ; preds = %16
  %22 = load ptr, ptr %3, align 8
  %23 = getelementptr inbounds i8, ptr %22, i64 72
  %24 = load ptr, ptr %23, align 8
  %.not.i.i = icmp eq ptr %24, null
  br i1 %.not.i.i, label %27, label %25

25:                                               ; preds = %21
  %26 = tail call i32 %24(ptr noundef nonnull %0, ptr noundef nonnull %11, i32 noundef 1) #14
  br label %InternalRead.exit.i

27:                                               ; preds = %21
  %28 = getelementptr inbounds i8, ptr %22, i64 64
  %29 = load ptr, ptr %28, align 8
  %30 = tail call i64 @fread(ptr noundef nonnull %11, i64 noundef 1, i64 noundef 1, ptr noundef %29)
  %31 = trunc i64 %30 to i32
  br label %InternalRead.exit.i

InternalRead.exit.i:                              ; preds = %27, %25
  %32 = phi i32 [ %26, %25 ], [ %31, %27 ]
  %.not.i = icmp eq i32 %32, 1
  br i1 %.not.i, label %35, label %33

33:                                               ; preds = %InternalRead.exit.i
  %34 = getelementptr inbounds i8, ptr %0, i64 96
  store i32 102, ptr %34, align 8
  br label %DGifBufferedInput.exit.thread

35:                                               ; preds = %InternalRead.exit.i
  %36 = load i8, ptr %11, align 1
  %37 = icmp eq i8 %36, 0
  br i1 %37, label %38, label %40

38:                                               ; preds = %35
  %39 = getelementptr inbounds i8, ptr %0, i64 96
  store i32 112, ptr %39, align 8
  br label %DGifBufferedInput.exit.thread

40:                                               ; preds = %35
  %41 = load ptr, ptr %3, align 8
  %42 = getelementptr inbounds i8, ptr %41, i64 72
  %43 = load ptr, ptr %42, align 8
  %.not.i21.i = icmp eq ptr %43, null
  br i1 %.not.i21.i, label %47, label %44

44:                                               ; preds = %40
  %45 = zext i8 %36 to i32
  %46 = tail call i32 %43(ptr noundef nonnull %0, ptr noundef nonnull %12, i32 noundef %45) #14
  br label %InternalRead.exit22.i

47:                                               ; preds = %40
  %48 = zext i8 %36 to i64
  %49 = getelementptr inbounds i8, ptr %41, i64 64
  %50 = load ptr, ptr %49, align 8
  %51 = tail call i64 @fread(ptr noundef nonnull %12, i64 noundef 1, i64 noundef %48, ptr noundef %50)
  %52 = trunc i64 %51 to i32
  br label %InternalRead.exit22.i

InternalRead.exit22.i:                            ; preds = %47, %44
  %53 = phi i32 [ %46, %44 ], [ %52, %47 ]
  %54 = load i8, ptr %11, align 1
  %55 = zext i8 %54 to i32
  %.not20.i = icmp eq i32 %53, %55
  br i1 %.not20.i, label %58, label %56

56:                                               ; preds = %InternalRead.exit22.i
  %57 = getelementptr inbounds i8, ptr %0, i64 96
  store i32 102, ptr %57, align 8
  br label %DGifBufferedInput.exit.thread

58:                                               ; preds = %InternalRead.exit22.i
  %59 = load i8, ptr %12, align 1
  store i8 2, ptr %12, align 1
  %.pre39 = load i32, ptr %8, align 4
  %.pre40 = load i32, ptr %5, align 8
  br label %66

60:                                               ; preds = %16
  %61 = load i8, ptr %12, align 1
  %62 = add i8 %61, 1
  store i8 %62, ptr %12, align 1
  %63 = zext i8 %61 to i64
  %64 = getelementptr inbounds i8, ptr %11, i64 %63
  %65 = load i8, ptr %64, align 1
  br label %66

66:                                               ; preds = %60, %58
  %67 = phi i32 [ %.pre40, %58 ], [ %17, %60 ]
  %68 = phi i32 [ %.pre39, %58 ], [ %18, %60 ]
  %storemerge.in.i = phi i8 [ %54, %58 ], [ %19, %60 ]
  %.1 = phi i8 [ %59, %58 ], [ %65, %60 ]
  %storemerge.i = add i8 %storemerge.in.i, -1
  store i8 %storemerge.i, ptr %11, align 1
  %69 = zext i8 %.1 to i64
  %70 = zext nneg i32 %68 to i64
  %71 = shl i64 %69, %70
  %72 = load i64, ptr %13, align 8
  %73 = or i64 %71, %72
  store i64 %73, ptr %13, align 8
  %74 = add nsw i32 %68, 8
  store i32 %74, ptr %8, align 4
  %75 = icmp slt i32 %74, %67
  br i1 %75, label %16, label %._crit_edge, !llvm.loop !20

._crit_edge:                                      ; preds = %66, %.preheader.._crit_edge_crit_edge
  %76 = phi i64 [ %.pre41, %.preheader.._crit_edge_crit_edge ], [ %73, %66 ]
  %.lcssa = phi i32 [ %6, %.preheader.._crit_edge_crit_edge ], [ %67, %66 ]
  %77 = getelementptr inbounds i8, ptr %4, i64 48
  %78 = sext i32 %.lcssa to i64
  %79 = getelementptr inbounds [13 x i16], ptr @DGifDecompressInput.CodeMasks, i64 0, i64 %78
  %80 = load i16, ptr %79, align 2
  %81 = zext i16 %80 to i64
  %82 = and i64 %76, %81
  %83 = trunc nuw nsw i64 %82 to i32
  store i32 %83, ptr %1, align 4
  %84 = load i32, ptr %5, align 8
  %85 = load i64, ptr %77, align 8
  %86 = zext nneg i32 %84 to i64
  %87 = lshr i64 %85, %86
  store i64 %87, ptr %77, align 8
  %88 = load i32, ptr %8, align 4
  %89 = sub nsw i32 %88, %84
  store i32 %89, ptr %8, align 4
  %90 = getelementptr inbounds i8, ptr %4, i64 20
  %91 = load i32, ptr %90, align 4
  %92 = icmp slt i32 %91, 4097
  br i1 %92, label %93, label %DGifBufferedInput.exit.thread

93:                                               ; preds = %._crit_edge
  %94 = add nsw i32 %91, 1
  store i32 %94, ptr %90, align 4
  %95 = getelementptr inbounds i8, ptr %4, i64 28
  %96 = load i32, ptr %95, align 4
  %.not = icmp sge i32 %91, %96
  %97 = icmp slt i32 %84, 12
  %or.cond = select i1 %.not, i1 %97, i1 false
  br i1 %or.cond, label %98, label %DGifBufferedInput.exit.thread

98:                                               ; preds = %93
  %99 = shl i32 %96, 1
  store i32 %99, ptr %95, align 4
  %100 = add nsw i32 %84, 1
  store i32 %100, ptr %5, align 8
  br label %DGifBufferedInput.exit.thread

DGifBufferedInput.exit.thread:                    ; preds = %56, %38, %33, %._crit_edge, %93, %98, %14
  %.0 = phi i32 [ 0, %14 ], [ 1, %98 ], [ 1, %93 ], [ 1, %._crit_edge ], [ 0, %33 ], [ 0, %38 ], [ 0, %56 ]
  ret i32 %.0
}